target datalayout = "e-m:e-p270:32:32-p271:32:32-p272:64:64-i64:64-i128:128-f80:128-n8:16:32:64-S128"
target triple = "x86_64-pc-linux-gnu"

%struct._generic_SUNMatrix = type { ptr, ptr, ptr }
%struct._SUNMatrixContent_Band = type { i64, i64, i64, i64, i64, i64, ptr, i64, ptr }

; Function Attrs: nounwind uwtable
define void @SUNMatDestroy_Band(ptr noundef %0) #0 {
  %2 = alloca ptr, align 8
  store ptr %0, ptr %2, align 8, !tbaa !10
  %3 = load ptr, ptr %2, align 8, !tbaa !10
  %4 = icmp eq ptr %3, null
  br i1 %4, label %5, label %6

5:                                                ; preds = %1
  br label %64

6:                                                ; preds = %1
  %7 = load ptr, ptr %2, align 8, !tbaa !10
  %8 = getelementptr inbounds nuw %struct._generic_SUNMatrix, ptr %7, i32 0, i32 0
  %9 = load ptr, ptr %8, align 8, !tbaa !27
  %10 = icmp ne ptr %9, null
  br i1 %10, label %11, label %51

11:                                               ; preds = %6
  %12 = load ptr, ptr %2, align 8, !tbaa !10
  %13 = getelementptr inbounds nuw %struct._generic_SUNMatrix, ptr %12, i32 0, i32 0
  %14 = load ptr, ptr %13, align 8, !tbaa !27
  %15 = getelementptr inbounds nuw %struct._SUNMatrixContent_Band, ptr %14, i32 0, i32 6
  %16 = load ptr, ptr %15, align 8, !tbaa !38
  %17 = icmp ne ptr %16, null
  br i1 %17, label %18, label %28

18:                                               ; preds = %11
  %19 = load ptr, ptr %2, align 8, !tbaa !10
  %20 = getelementptr inbounds nuw %struct._generic_SUNMatrix, ptr %19, i32 0, i32 0
  %21 = load ptr, ptr %20, align 8, !tbaa !27
  %22 = getelementptr inbounds nuw %struct._SUNMatrixContent_Band, ptr %21, i32 0, i32 6
  %23 = load ptr, ptr %22, align 8, !tbaa !38
  call void @free(ptr noundef %23) #8
  %24 = load ptr, ptr %2, align 8, !tbaa !10
  %25 = getelementptr inbounds nuw %struct._generic_SUNMatrix, ptr %24, i32 0, i32 0
  %26 = load ptr, ptr %25, align 8, !tbaa !27
  %27 = getelementptr inbounds nuw %struct._SUNMatrixContent_Band, ptr %26, i32 0, i32 6
  store ptr null, ptr %27, align 8, !tbaa !38
  br label %28

28:                                               ; preds = %18, %11
  %29 = load ptr, ptr %2, align 8, !tbaa !10
  %30 = getelementptr inbounds nuw %struct._generic_SUNMatrix, ptr %29, i32 0, i32 0
  %31 = load ptr, ptr %30, align 8, !tbaa !27
  %32 = getelementptr inbounds nuw %struct._SUNMatrixContent_Band, ptr %31, i32 0, i32 8
  %33 = load ptr, ptr %32, align 8, !tbaa !39
  %34 = icmp ne ptr %33, null
  br i1 %34, label %35, label %45

35:                                               ; preds = %28
  %36 = load ptr, ptr %2, align 8, !tbaa !10
  %37 = getelementptr inbounds nuw %struct._generic_SUNMatrix, ptr %36, i32 0, i32 0
  %38 = load ptr, ptr %37, align 8, !tbaa !27
  %39 = getelementptr inbounds nuw %struct._SUNMatrixContent_Band, ptr %38, i32 0, i32 8
  %40 = load ptr, ptr %39, align 8, !tbaa !39
  call void @free(ptr noundef %40) #8
  %41 = load ptr, ptr %2, align 8, !tbaa !10
  %42 = getelementptr inbounds nuw %struct._generic_SUNMatrix, ptr %41, i32 0, i32 0
  %43 = load ptr, ptr %42, align 8, !tbaa !27
  %44 = getelementptr inbounds nuw %struct._SUNMatrixContent_Band, ptr %43, i32 0, i32 8
  store ptr null, ptr %44, align 8, !tbaa !39
  br label %45

45:                                               ; preds = %35, %28
  %46 = load ptr, ptr %2, align 8, !tbaa !10
  %47 = getelementptr inbounds nuw %struct._generic_SUNMatrix, ptr %46, i32 0, i32 0
  %48 = load ptr, ptr %47, align 8, !tbaa !27
  call void @free(ptr noundef %48) #8
  %49 = load ptr, ptr %2, align 8, !tbaa !10
  %50 = getelementptr inbounds nuw %struct._generic_SUNMatrix, ptr %49, i32 0, i32 0
  store ptr null, ptr %50, align 8, !tbaa !27
  br label %51

51:                                               ; preds = %45, %6
  %52 = load ptr, ptr %2, align 8, !tbaa !10
  %53 = getelementptr inbounds nuw %struct._generic_SUNMatrix, ptr %52, i32 0, i32 1
  %54 = load ptr, ptr %53, align 8, !tbaa !12
  %55 = icmp ne ptr %54, null
  br i1 %55, label %56, label %62

56:                                               ; preds = %51
  %57 = load ptr, ptr %2, align 8, !tbaa !10
  %58 = getelementptr inbounds nuw %struct._generic_SUNMatrix, ptr %57, i32 0, i32 1
  %59 = load ptr, ptr %58, align 8, !tbaa !12
  call void @free(ptr noundef %59) #8
  %60 = load ptr, ptr %2, align 8, !tbaa !10
  %61 = getelementptr inbounds nuw %struct._generic_SUNMatrix, ptr %60, i32 0, i32 1
  store ptr null, ptr %61, align 8, !tbaa !12
  br label %62

62:                                               ; preds = %56, %51
  %63 = load ptr, ptr %2, align 8, !tbaa !10
  call void @free(ptr noundef %63) #8
  store ptr null, ptr %2, align 8, !tbaa !10
  br label %64

64:                                               ; preds = %62, %5
  ret void
}