; Function Attrs: mustprogress nounwind willreturn uwtable
define void @SUNMatDestroy_Band(ptr noundef captures(address_is_null) %0) #3 {
  %2 = icmp eq ptr %0, null
  br i1 %2, label %25, label %3

3:                                                ; preds = %1
  %4 = load ptr, ptr %0, align 8, !tbaa !20
  %.not = icmp eq ptr %4, null
  br i1 %.not, label %20, label %5

5:                                                ; preds = %3
  %6 = getelementptr inbounds nuw i8, ptr %4, i64 48
  %7 = load ptr, ptr %6, align 8, !tbaa !32
  %.not18 = icmp eq ptr %7, null
  br i1 %.not18, label %11, label %8

8:                                                ; preds = %5
  tail call void @free(ptr noundef nonnull %7) #18
  %9 = load ptr, ptr %0, align 8, !tbaa !20
  %10 = getelementptr inbounds nuw i8, ptr %9, i64 48
  store ptr null, ptr %10, align 8, !tbaa !32
  br label %11

11:                                               ; preds = %8, %5
  %12 = phi ptr [ %9, %8 ], [ %4, %5 ]
  %13 = getelementptr inbounds nuw i8, ptr %12, i64 64
  %14 = load ptr, ptr %13, align 8, !tbaa !33
  %.not19 = icmp eq ptr %14, null
  br i1 %.not19, label %18, label %15

15:                                               ; preds = %11
  tail call void @free(ptr noundef nonnull %14) #18
  %16 = load ptr, ptr %0, align 8, !tbaa !20
  %17 = getelementptr inbounds nuw i8, ptr %16, i64 64
  store ptr null, ptr %17, align 8, !tbaa !33
  br label %18

18:                                               ; preds = %15, %11
  %19 = phi ptr [ %16, %15 ], [ %12, %11 ]
  tail call void @free(ptr noundef nonnull %19) #18
  store ptr null, ptr %0, align 8, !tbaa !20
  br label %20

20:                                               ; preds = %18, %3
  %21 = getelementptr inbounds nuw i8, ptr %0, i64 8
  %22 = load ptr, ptr %21, align 8, !tbaa !3
  %.not20 = icmp eq ptr %22, null
  br i1 %.not20, label %24, label %23

23:                                               ; preds = %20
  tail call void @free(ptr noundef nonnull %22) #18
  br label %24

24:                                               ; preds = %23, %20
  tail call void @free(ptr noundef nonnull %0) #18
  br label %25

25:                                               ; preds = %1, %24
  ret void
}